target datalayout = "e-m:e-p270:32:32-p271:32:32-p272:64:64-i64:64-i128:128-f80:128-n8:16:32:64-S128"
target triple = "x86_64-pc-linux-gnu"

%struct.Gia_Man_t_ = type { ptr, ptr, i32, i32, i32, i32, ptr, ptr, i32, i32, i32, ptr, ptr, %struct.Vec_Int_t_, %struct.Vec_Int_t_, i32, i32, i32, %struct.Vec_Int_t_, ptr, ptr, ptr, i32, i32, i32, i32, ptr, ptr, ptr, ptr, ptr, i32, i32, ptr, i32, ptr, ptr, ptr, ptr, ptr, ptr, ptr, ptr, ptr, ptr, ptr, ptr, ptr, ptr, ptr, ptr, ptr, ptr, %struct.Vec_Int_t_, %struct.Vec_Int_t_, ptr, ptr, ptr, ptr, ptr, ptr, ptr, ptr, ptr, ptr, ptr, ptr, ptr, ptr, ptr, ptr, ptr, ptr, ptr, ptr, ptr, i32, float, float, ptr, ptr, i32, ptr, ptr, ptr, ptr, ptr, ptr, ptr, ptr, ptr, ptr, ptr, ptr, ptr, ptr, ptr, i64, i64, ptr, ptr, i32, i32, i32, i32, i32, i32, i32, i32, i32, i32, i32, i32, ptr, ptr, ptr, ptr, ptr, ptr, ptr, ptr, i32, i32, i32, ptr, i32, i32, ptr, ptr, ptr, ptr, ptr, ptr, i32, i32, ptr, %struct.Vec_Int_t_, %struct.Vec_Int_t_, %struct.Vec_Int_t_, ptr, ptr, ptr, i32, i32, i32, i32, ptr, ptr, ptr, ptr, ptr }
%struct.Vec_Int_t_ = type { i32, i32, ptr }

@.str.27 = private unnamed_addr constant [37 x i8] c"The max LUT size (%d) is too large.\0A\00", align 1

; Function Attrs: inlinehint nounwind uwtable
define internal i32 @Vec_IntEntry(ptr noundef %0, i32 noundef %1) #3 {
  %3 = alloca ptr, align 8
  %4 = alloca i32, align 4
  store ptr %0, ptr %3, align 8, !tbaa !74
  store i32 %1, ptr %4, align 4, !tbaa !42
  %5 = load ptr, ptr %3, align 8, !tbaa !74
  %6 = getelementptr inbounds nuw %struct.Vec_Int_t_, ptr %5, i32 0, i32 2
  %7 = load ptr, ptr %6, align 8, !tbaa !94
  %8 = load i32, ptr %4, align 4, !tbaa !42
  %9 = sext i32 %8 to i64
  %10 = getelementptr inbounds i32, ptr %7, i64 %9
  %11 = load i32, ptr %10, align 4, !tbaa !42
  ret i32 %11
}

; Function Attrs: inlinehint nounwind uwtable
define internal i32 @Abc_MaxInt(i32 noundef %0, i32 noundef %1) #3 {
  %3 = alloca i32, align 4
  %4 = alloca i32, align 4
  store i32 %0, ptr %3, align 4, !tbaa !42
  store i32 %1, ptr %4, align 4, !tbaa !42
  %5 = load i32, ptr %3, align 4, !tbaa !42
  %6 = load i32, ptr %4, align 4, !tbaa !42
  %7 = icmp sgt i32 %5, %6
  br i1 %7, label %8, label %10

8:                                                ; preds = %2
  %9 = load i32, ptr %3, align 4, !tbaa !42
  br label %12

10:                                               ; preds = %2
  %11 = load i32, ptr %4, align 4, !tbaa !42
  br label %12

12:                                               ; preds = %10, %8
  %13 = phi i32 [ %9, %8 ], [ %11, %10 ]
  ret i32 %13
}

; Function Attrs: inlinehint nounwind uwtable
define internal i32 @Gia_ObjLutSize(ptr noundef %0, i32 noundef %1) #3 {
  %3 = alloca ptr, align 8
  %4 = alloca i32, align 4
  store ptr %0, ptr %3, align 8, !tbaa !40
  store i32 %1, ptr %4, align 4, !tbaa !42
  %5 = load ptr, ptr %3, align 8, !tbaa !40
  %6 = getelementptr inbounds nuw %struct.Gia_Man_t_, ptr %5, i32 0, i32 37
  %7 = load ptr, ptr %6, align 8, !tbaa !63
  %8 = load ptr, ptr %3, align 8, !tbaa !40
  %9 = getelementptr inbounds nuw %struct.Gia_Man_t_, ptr %8, i32 0, i32 37
  %10 = load ptr, ptr %9, align 8, !tbaa !63
  %11 = load i32, ptr %4, align 4, !tbaa !42
  %12 = call i32 @Vec_IntEntry(ptr noundef %10, i32 noundef %11)
  %13 = call i32 @Vec_IntEntry(ptr noundef %7, i32 noundef %12)
  ret i32 %13
}

; Function Attrs: inlinehint nounwind uwtable
define internal i32 @Gia_ObjIsLut(ptr noundef %0, i32 noundef %1) #3 {
  %3 = alloca ptr, align 8
  %4 = alloca i32, align 4
  store ptr %0, ptr %3, align 8, !tbaa !40
  store i32 %1, ptr %4, align 4, !tbaa !42
  %5 = load ptr, ptr %3, align 8, !tbaa !40
  %6 = getelementptr inbounds nuw %struct.Gia_Man_t_, ptr %5, i32 0, i32 37
  %7 = load ptr, ptr %6, align 8, !tbaa !63
  %8 = load i32, ptr %4, align 4, !tbaa !42
  %9 = call i32 @Vec_IntEntry(ptr noundef %7, i32 noundef %8)
  %10 = icmp ne i32 %9, 0
  %11 = zext i1 %10 to i32
  ret i32 %11
}

; Function Attrs: inlinehint nounwind uwtable
define internal i32 @Gia_ManObjNum(ptr noundef %0) #3 {
  %2 = alloca ptr, align 8
  store ptr %0, ptr %2, align 8, !tbaa !40
  %3 = load ptr, ptr %2, align 8, !tbaa !40
  %4 = getelementptr inbounds nuw %struct.Gia_Man_t_, ptr %3, i32 0, i32 4
  %5 = load i32, ptr %4, align 8, !tbaa !45
  ret i32 %5
}

; Function Attrs: nounwind uwtable
define i32 @Gia_ManLutSizeMax(ptr noundef %0) #0 {
  %2 = alloca ptr, align 8
  %3 = alloca i32, align 4
  %4 = alloca i32, align 4
  store ptr %0, ptr %2, align 8, !tbaa !40
  call void @llvm.lifetime.start.p0(i64 4, ptr %3) #14
  call void @llvm.lifetime.start.p0(i64 4, ptr %4) #14
  store i32 -1, ptr %4, align 4, !tbaa !42
  store i32 1, ptr %3, align 4, !tbaa !42
  br label %5

5:                                                ; preds = %23, %1
  %6 = load i32, ptr %3, align 4, !tbaa !42
  %7 = load ptr, ptr %2, align 8, !tbaa !40
  %8 = call i32 @Gia_ManObjNum(ptr noundef %7)
  %9 = icmp slt i32 %6, %8
  br i1 %9, label %10, label %26

10:                                               ; preds = %5
  %11 = load ptr, ptr %2, align 8, !tbaa !40
  %12 = load i32, ptr %3, align 4, !tbaa !42
  %13 = call i32 @Gia_ObjIsLut(ptr noundef %11, i32 noundef %12)
  %14 = icmp ne i32 %13, 0
  br i1 %14, label %16, label %15

15:                                               ; preds = %10
  br label %22

16:                                               ; preds = %10
  %17 = load i32, ptr %4, align 4, !tbaa !42
  %18 = load ptr, ptr %2, align 8, !tbaa !40
  %19 = load i32, ptr %3, align 4, !tbaa !42
  %20 = call i32 @Gia_ObjLutSize(ptr noundef %18, i32 noundef %19)
  %21 = call i32 @Abc_MaxInt(i32 noundef %17, i32 noundef %20)
  store i32 %21, ptr %4, align 4, !tbaa !42
  br label %22

22:                                               ; preds = %16, %15
  br label %23

23:                                               ; preds = %22
  %24 = load i32, ptr %3, align 4, !tbaa !42
  %25 = add nsw i32 %24, 1
  store i32 %25, ptr %3, align 4, !tbaa !42
  br label %5, !llvm.loop !64

26:                                               ; preds = %5
  %27 = load i32, ptr %4, align 4, !tbaa !42
  call void @llvm.lifetime.end.p0(i64 4, ptr %4) #14
  call void @llvm.lifetime.end.p0(i64 4, ptr %3) #14
  ret i32 %27
}

; Function Attrs: nounwind uwtable
define void @Gia_ManPrintLutStats(ptr noundef %0) #0 {
  %2 = alloca ptr, align 8
  %3 = alloca i32, align 4
  %4 = alloca i32, align 4
  %5 = alloca [33 x i32], align 16
  %6 = alloca i32, align 4
  store ptr %0, ptr %2, align 8, !tbaa !40
  call void @llvm.lifetime.start.p0(i64 4, ptr %3) #14
  call void @llvm.lifetime.start.p0(i64 4, ptr %4) #14
  call void @llvm.lifetime.start.p0(i64 132, ptr %5) #14
  call void @llvm.memset.p0.i64(ptr align 16 %5, i8 0, i64 132, i1 false)
  %7 = load ptr, ptr %2, align 8, !tbaa !40
  %8 = call i32 @Gia_ManLutSizeMax(ptr noundef %7)
  store i32 %8, ptr %4, align 4, !tbaa !42
  %9 = load i32, ptr %4, align 4, !tbaa !42
  %10 = icmp sgt i32 %9, 32
  br i1 %10, label %11, label %13

11:                                               ; preds = %1
  %12 = load i32, ptr %4, align 4, !tbaa !42
  call void (i32, ptr, ...) @Abc_Print(i32 noundef 1, ptr noundef @.str.27, i32 noundef %12)
  store i32 1, ptr %6, align 4
  br label %40

13:                                               ; preds = %1
  store i32 1, ptr %3, align 4, !tbaa !42
  br label %14

14:                                               ; preds = %34, %13
  %15 = load i32, ptr %3, align 4, !tbaa !42
  %16 = load ptr, ptr %2, align 8, !tbaa !40
  %17 = call i32 @Gia_ManObjNum(ptr noundef %16)
  %18 = icmp slt i32 %15, %17
  br i1 %18, label %19, label %37

19:                                               ; preds = %14
  %20 = load ptr, ptr %2, align 8, !tbaa !40
  %21 = load i32, ptr %3, align 4, !tbaa !42
  %22 = call i32 @Gia_ObjIsLut(ptr noundef %20, i32 noundef %21)
  %23 = icmp ne i32 %22, 0
  br i1 %23, label %25, label %24

24:                                               ; preds = %19
  br label %33

25:                                               ; preds = %19
  %26 = load ptr, ptr %2, align 8, !tbaa !40
  %27 = load i32, ptr %3, align 4, !tbaa !42
  %28 = call i32 @Gia_ObjLutSize(ptr noundef %26, i32 noundef %27)
  %29 = sext i32 %28 to i64
  %30 = getelementptr inbounds [33 x i32], ptr %5, i64 0, i64 %29
  %31 = load i32, ptr %30, align 4, !tbaa !42
  %32 = add nsw i32 %31, 1
  store i32 %32, ptr %30, align 4, !tbaa !42
  br label %33

33:                                               ; preds = %25, %24
  br label %34

34:                                               ; preds = %33
  %35 = load i32, ptr %3, align 4, !tbaa !42
  %36 = add nsw i32 %35, 1
  store i32 %36, ptr %3, align 4, !tbaa !42
  br label %14, !llvm.loop !121

37:                                               ; preds = %14
  %38 = getelementptr inbounds [33 x i32], ptr %5, i64 0, i64 0
  %39 = load i32, ptr %4, align 4, !tbaa !42
  call void @Gia_ManPrintNodeProfile(ptr noundef %38, i32 noundef %39)
  store i32 0, ptr %6, align 4
  br label %40

40:                                               ; preds = %37, %11
  call void @llvm.lifetime.end.p0(i64 132, ptr %5) #14
  call void @llvm.lifetime.end.p0(i64 4, ptr %4) #14
  call void @llvm.lifetime.end.p0(i64 4, ptr %3) #14
  %41 = load i32, ptr %6, align 4
  switch i32 %41, label %43 [
    i32 0, label %42
    i32 1, label %42
  ]

42:                                               ; preds = %40, %40
  ret void

43:                                               ; preds = %40
  unreachable
}