; Function Attrs: nounwind uwtable
define void @Gia_ManPrintLutStats(ptr noundef readonly captures(none) %0) local_unnamed_addr #4 {
  %2 = alloca [33 x i32], align 16
  call void @llvm.lifetime.start.p0(i64 132, ptr nonnull %2) #27
  call void @llvm.memset.p0.i64(ptr noundef nonnull align 16 dereferenceable(132) %2, i8 0, i64 132, i1 false)
  %3 = getelementptr i8, ptr %0, i64 24
  %.val.i = load i32, ptr %3, align 8, !tbaa !27
  %4 = icmp sgt i32 %.val.i, 1
  br i1 %4, label %.lr.ph.i, label %._crit_edge

.lr.ph.i:                                         ; preds = %1
  %5 = getelementptr i8, ptr %0, i64 264
  %.val9.i = load ptr, ptr %5, align 8, !tbaa !46
  %6 = getelementptr i8, ptr %.val9.i, i64 8
  %.val9.val.i = load ptr, ptr %6, align 8, !tbaa !47
  %wide.trip.count.i = zext nneg i32 %.val.i to i64
  br label %7

7:                                                ; preds = %15, %.lr.ph.i
  %indvars.iv.i = phi i64 [ 1, %.lr.ph.i ], [ %indvars.iv.next.i, %15 ]
  %.013.i = phi i32 [ -1, %.lr.ph.i ], [ %.1.i, %15 ]
  %8 = getelementptr inbounds nuw i32, ptr %.val9.val.i, i64 %indvars.iv.i
  %9 = load i32, ptr %8, align 4, !tbaa !48
  %.not11.i = icmp eq i32 %9, 0
  br i1 %.not11.i, label %15, label %10

10:                                               ; preds = %7
  %11 = sext i32 %9 to i64
  %12 = getelementptr inbounds i32, ptr %.val9.val.i, i64 %11
  %13 = load i32, ptr %12, align 4, !tbaa !48
  %14 = tail call noundef i32 @llvm.smax.i32(i32 %.013.i, i32 %13)
  br label %15

15:                                               ; preds = %10, %7
  %.1.i = phi i32 [ %14, %10 ], [ %.013.i, %7 ]
  %indvars.iv.next.i = add nuw nsw i64 %indvars.iv.i, 1
  %exitcond.not.i = icmp eq i64 %indvars.iv.next.i, %wide.trip.count.i
  br i1 %exitcond.not.i, label %Gia_ManLutSizeMax.exit, label %7, !llvm.loop !51

Gia_ManLutSizeMax.exit:                           ; preds = %15
  %16 = icmp sgt i32 %.1.i, 32
  br i1 %16, label %19, label %.lr.ph

.lr.ph:                                           ; preds = %Gia_ManLutSizeMax.exit
  %17 = getelementptr i8, ptr %0, i64 264
  %.val11 = load ptr, ptr %17, align 8, !tbaa !46
  %18 = getelementptr i8, ptr %.val11, i64 8
  %.val11.val = load ptr, ptr %18, align 8, !tbaa !47
  %wide.trip.count = zext nneg i32 %.val.i to i64
  br label %20

19:                                               ; preds = %Gia_ManLutSizeMax.exit
  tail call void (i32, ptr, ...) @Abc_Print(i32 noundef 1, ptr noundef nonnull @.str.27, i32 noundef %.1.i)
  br label %32

20:                                               ; preds = %.lr.ph, %31
  %indvars.iv = phi i64 [ 1, %.lr.ph ], [ %indvars.iv.next, %31 ]
  %21 = getelementptr inbounds nuw i32, ptr %.val11.val, i64 %indvars.iv
  %22 = load i32, ptr %21, align 4, !tbaa !48
  %.not13 = icmp eq i32 %22, 0
  br i1 %.not13, label %31, label %23

23:                                               ; preds = %20
  %24 = sext i32 %22 to i64
  %25 = getelementptr inbounds i32, ptr %.val11.val, i64 %24
  %26 = load i32, ptr %25, align 4, !tbaa !48
  %27 = sext i32 %26 to i64
  %28 = getelementptr inbounds [33 x i32], ptr %2, i64 0, i64 %27
  %29 = load i32, ptr %28, align 4, !tbaa !48
  %30 = add nsw i32 %29, 1
  store i32 %30, ptr %28, align 4, !tbaa !48
  br label %31

31:                                               ; preds = %23, %20
  %indvars.iv.next = add nuw nsw i64 %indvars.iv, 1
  %exitcond.not = icmp eq i64 %indvars.iv.next, %wide.trip.count
  br i1 %exitcond.not, label %._crit_edge, label %20, !llvm.loop !104

._crit_edge:                                      ; preds = %31, %1
  %.0.lcssa.i1719 = phi i32 [ -1, %1 ], [ %.1.i, %31 ]
  call void @Gia_ManPrintNodeProfile(ptr noundef nonnull %2, i32 noundef %.0.lcssa.i1719)
  br label %32

32:                                               ; preds = %._crit_edge, %19
  call void @llvm.lifetime.end.p0(i64 132, ptr nonnull %2) #27
  ret void
}